; Function Attrs: mustprogress uwtable
define hidden noundef zeroext i1 @_ZN6google8protobuf15UnknownFieldSet23ParseFromZeroCopyStreamEPNS0_2io19ZeroCopyInputStreamE(ptr noundef nonnull align 8 dereferenceable(24) %0, ptr noundef %1) local_unnamed_addr #3 align 2 personality ptr @__gxx_personality_v0 {
  %3 = alloca %"class.google::protobuf::io::CodedInputStream", align 8
  call void @llvm.lifetime.start.p0(i64 80, ptr nonnull %3) #17
  %4 = getelementptr inbounds nuw i8, ptr %3, i64 16
  call void @llvm.memset.p0.i64(ptr noundef nonnull align 8 dereferenceable(80) %3, i8 0, i64 16, i1 false)
  store ptr %1, ptr %4, align 8, !tbaa !48
  %5 = getelementptr inbounds nuw i8, ptr %3, i64 24
  %6 = getelementptr inbounds nuw i8, ptr %3, i64 40
  call void @llvm.memset.p0.i64(ptr noundef nonnull align 8 dereferenceable(14) %5, i8 0, i64 14, i1 false)
  store i32 2147483647, ptr %6, align 8, !tbaa !49
  %7 = getelementptr inbounds nuw i8, ptr %3, i64 44
  store i32 0, ptr %7, align 4, !tbaa !50
  %8 = getelementptr inbounds nuw i8, ptr %3, i64 48
  store i32 2147483647, ptr %8, align 8, !tbaa !51
  %9 = getelementptr inbounds nuw i8, ptr %3, i64 52
  %10 = load i32, ptr @_ZN6google8protobuf2io16CodedInputStream24default_recursion_limit_E, align 4, !tbaa !28
  store i32 %10, ptr %9, align 4, !tbaa !52
  %11 = getelementptr inbounds nuw i8, ptr %3, i64 56
  store i32 %10, ptr %11, align 8, !tbaa !53
  %12 = getelementptr inbounds nuw i8, ptr %3, i64 64
  call void @llvm.memset.p0.i64(ptr noundef nonnull align 8 dereferenceable(16) %12, i8 0, i64 16, i1 false)
  %13 = call noundef zeroext i1 @_ZN6google8protobuf2io16CodedInputStream7RefreshEv(ptr noundef nonnull align 8 dereferenceable(80) %3)
  %14 = load ptr, ptr %0, align 8, !tbaa !23
  %15 = getelementptr inbounds nuw i8, ptr %0, i64 8
  %16 = load ptr, ptr %15, align 8, !tbaa !23
  %17 = icmp eq ptr %14, %16
  br i1 %17, label %_ZN6google8protobuf15UnknownFieldSet5ClearEv.exit.i, label %18

18:                                               ; preds = %2
  call void @_ZN6google8protobuf15UnknownFieldSet13ClearFallbackEv(ptr noundef nonnull align 8 dereferenceable(24) %0)
  br label %_ZN6google8protobuf15UnknownFieldSet5ClearEv.exit.i

_ZN6google8protobuf15UnknownFieldSet5ClearEv.exit.i: ; preds = %18, %2
  %19 = invoke noundef zeroext i1 @_ZN6google8protobuf15UnknownFieldSet20MergeFromCodedStreamEPNS0_2io16CodedInputStreamE(ptr noundef nonnull align 8 dereferenceable(24) %0, ptr noundef nonnull %3)
          to label %_ZN6google8protobuf15UnknownFieldSet20ParseFromCodedStreamEPNS0_2io16CodedInputStreamE.exit unwind label %24

_ZN6google8protobuf15UnknownFieldSet20ParseFromCodedStreamEPNS0_2io16CodedInputStreamE.exit: ; preds = %_ZN6google8protobuf15UnknownFieldSet5ClearEv.exit.i
  %20 = getelementptr inbounds nuw i8, ptr %3, i64 36
  %21 = load i8, ptr %20, align 4, !range !46
  %22 = trunc nuw i8 %21 to i1
  %23 = select i1 %19, i1 %22, i1 false
  call void @_ZN6google8protobuf2io16CodedInputStreamD1Ev(ptr noundef nonnull align 8 dereferenceable(80) %3) #17
  call void @llvm.lifetime.end.p0(i64 80, ptr nonnull %3) #17
  ret i1 %23

24:                                               ; preds = %_ZN6google8protobuf15UnknownFieldSet5ClearEv.exit.i
  %25 = landingpad { ptr, i32 }
          cleanup
  call void @_ZN6google8protobuf2io16CodedInputStreamD1Ev(ptr noundef nonnull align 8 dereferenceable(80) %3) #17
  call void @llvm.lifetime.end.p0(i64 80, ptr nonnull %3) #17
  resume { ptr, i32 } %25
}